; Function Attrs: mustprogress nounwind uwtable
define dso_local void @_ZNK4llvm19DWARFDebugArangeSet10Descriptor4dumpERNS_11raw_ostreamEj(ptr nocapture noundef nonnull readonly align 8 dereferenceable(16) %0, ptr noundef nonnull align 8 dereferenceable(48) %1, i32 noundef %2) local_unnamed_addr #0 align 2 {
  %4 = getelementptr inbounds nuw i8, ptr %1, i64 32
  %5 = load ptr, ptr %4, align 8
  %6 = getelementptr inbounds nuw i8, ptr %1, i64 24
  %7 = load ptr, ptr %6, align 8
  %.not.i = icmp ult ptr %5, %7
  br i1 %.not.i, label %10, label %8

8:                                                ; preds = %3
  %9 = tail call noundef nonnull align 8 dereferenceable(48) ptr @_ZN4llvm11raw_ostream5writeEh(ptr noundef nonnull align 8 dereferenceable(48) %1, i8 noundef zeroext 91) #15
  br label %_ZN4llvm11raw_ostreamlsEc.exit

10:                                               ; preds = %3
  %11 = getelementptr inbounds i8, ptr %5, i64 1
  store ptr %11, ptr %4, align 8
  store i8 91, ptr %5, align 1
  br label %_ZN4llvm11raw_ostreamlsEc.exit

_ZN4llvm11raw_ostreamlsEc.exit:                   ; preds = %8, %10
  %12 = trunc i32 %2 to i8
  %13 = load i64, ptr %0, align 8
  tail call void @_ZN4llvm14DWARFFormValue11dumpAddressERNS_11raw_ostreamEhm(ptr noundef nonnull align 8 dereferenceable(48) %1, i8 noundef zeroext %12, i64 noundef %13) #15
  %14 = load ptr, ptr %6, align 8
  %15 = load ptr, ptr %4, align 8
  %16 = ptrtoint ptr %14 to i64
  %17 = ptrtoint ptr %15 to i64
  %18 = sub i64 %16, %17
  %19 = icmp ult i64 %18, 2
  br i1 %19, label %20, label %22

20:                                               ; preds = %_ZN4llvm11raw_ostreamlsEc.exit
  %21 = tail call noundef nonnull align 8 dereferenceable(48) ptr @_ZN4llvm11raw_ostream5writeEPKcm(ptr noundef nonnull align 8 dereferenceable(48) %1, ptr noundef nonnull @.str, i64 noundef 2) #15
  br label %_ZN4llvm11raw_ostreamlsEPKc.exit

22:                                               ; preds = %_ZN4llvm11raw_ostreamlsEc.exit
  store i16 8236, ptr %15, align 1
  %23 = load ptr, ptr %4, align 8
  %24 = getelementptr inbounds i8, ptr %23, i64 2
  store ptr %24, ptr %4, align 8
  br label %_ZN4llvm11raw_ostreamlsEPKc.exit

_ZN4llvm11raw_ostreamlsEPKc.exit:                 ; preds = %20, %22
  %25 = load i64, ptr %0, align 8
  %26 = getelementptr inbounds nuw i8, ptr %0, i64 8
  %27 = load i64, ptr %26, align 8
  %28 = add i64 %27, %25
  tail call void @_ZN4llvm14DWARFFormValue11dumpAddressERNS_11raw_ostreamEhm(ptr noundef nonnull align 8 dereferenceable(48) %1, i8 noundef zeroext %12, i64 noundef %28) #15
  %29 = load ptr, ptr %4, align 8
  %30 = load ptr, ptr %6, align 8
  %.not.i7 = icmp ult ptr %29, %30
  br i1 %.not.i7, label %33, label %31

31:                                               ; preds = %_ZN4llvm11raw_ostreamlsEPKc.exit
  %32 = tail call noundef nonnull align 8 dereferenceable(48) ptr @_ZN4llvm11raw_ostream5writeEh(ptr noundef nonnull align 8 dereferenceable(48) %1, i8 noundef zeroext 41) #15
  br label %_ZN4llvm11raw_ostreamlsEc.exit9

33:                                               ; preds = %_ZN4llvm11raw_ostreamlsEPKc.exit
  %34 = getelementptr inbounds i8, ptr %29, i64 1
  store ptr %34, ptr %4, align 8
  store i8 41, ptr %29, align 1
  br label %_ZN4llvm11raw_ostreamlsEc.exit9

_ZN4llvm11raw_ostreamlsEc.exit9:                  ; preds = %31, %33
  ret void
}